target datalayout = "e-m:e-p270:32:32-p271:32:32-p272:64:64-i64:64-i128:128-f80:128-n8:16:32:64-S128"
target triple = "x86_64-unknown-linux-gnu"

%"struct.ue2::ParseMode" = type { i8, i8, i8, i8, i8, i8 }
%"class.ue2::CodePointSet" = type { %"class.boost::icl::interval_set" }
%"class.boost::icl::interval_set" = type { %"class.boost::icl::interval_base_set" }
%"class.boost::icl::interval_base_set" = type { %"class.std::set" }
%"class.std::set" = type { %"class.std::_Rb_tree" }
%"class.std::_Rb_tree" = type { %"struct.std::_Rb_tree<boost::icl::closed_interval<unsigned int>, boost::icl::closed_interval<unsigned int>, std::_Identity<boost::icl::closed_interval<unsigned int>>, boost::icl::exclusive_less_than<boost::icl::closed_interval<unsigned int>>>::_Rb_tree_impl" }
%"struct.std::_Rb_tree<boost::icl::closed_interval<unsigned int>, boost::icl::closed_interval<unsigned int>, std::_Identity<boost::icl::closed_interval<unsigned int>>, boost::icl::exclusive_less_than<boost::icl::closed_interval<unsigned int>>>::_Rb_tree_impl" = type { %"struct.std::_Rb_tree_key_compare", %"struct.std::_Rb_tree_header" }
%"struct.std::_Rb_tree_key_compare" = type { %"struct.boost::icl::exclusive_less_than" }
%"struct.boost::icl::exclusive_less_than" = type { i8 }
%"struct.std::_Rb_tree_header" = type { %"struct.std::_Rb_tree_node_base", i64 }
%"struct.std::_Rb_tree_node_base" = type { i32, ptr, ptr, ptr }
%"class.ue2::CharReach" = type { %"class.ue2::bitfield" }
%"class.ue2::bitfield" = type { %"struct.std::array" }
%"struct.std::array" = type { [4 x i64] }
%"class.ue2::UTF8ComponentClass" = type { %"class.ue2::ComponentClass.base", %"class.ue2::CodePointSet", %"class.std::map", i32, i32, i32, i32, i32, i32, i32, %"class.std::set.5" }
%"class.ue2::ComponentClass.base" = type <{ %"class.ue2::Component", i8, %"struct.ue2::ParseMode", i8, i32, i8 }>
%"class.ue2::Component" = type { ptr, i32, i32 }
%"class.std::map" = type { %"class.std::_Rb_tree.0" }
%"class.std::_Rb_tree.0" = type { %"struct.std::_Rb_tree<unsigned char, std::pair<const unsigned char, unsigned int>, std::_Select1st<std::pair<const unsigned char, unsigned int>>, std::less<unsigned char>>::_Rb_tree_impl" }
%"struct.std::_Rb_tree<unsigned char, std::pair<const unsigned char, unsigned int>, std::_Select1st<std::pair<const unsigned char, unsigned int>>, std::less<unsigned char>>::_Rb_tree_impl" = type { %"struct.std::_Rb_tree_key_compare.4", %"struct.std::_Rb_tree_header" }
%"struct.std::_Rb_tree_key_compare.4" = type { %"struct.std::less" }
%"struct.std::less" = type { i8 }
%"class.std::set.5" = type { %"class.std::_Rb_tree.6" }
%"class.std::_Rb_tree.6" = type { %"struct.std::_Rb_tree<unsigned int, unsigned int, std::_Identity<unsigned int>, std::less<unsigned int>>::_Rb_tree_impl" }
%"struct.std::_Rb_tree<unsigned int, unsigned int, std::_Identity<unsigned int>, std::less<unsigned int>>::_Rb_tree_impl" = type { %"struct.std::_Rb_tree_key_compare.10", %"struct.std::_Rb_tree_header" }
%"struct.std::_Rb_tree_key_compare.10" = type { %"struct.std::less.11" }
%"struct.std::less.11" = type { i8 }

@_ZN3ue218GlushkovBuildState17POS_UNINITIALIZEDE = external constant i32, align 4

; Function Attrs: mustprogress nounwind uwtable
define linkonce_odr dso_local noundef nonnull align 8 dereferenceable(8) ptr @_ZNSt14__array_traitsIyLm4EE6_S_refERA4_Kym(ptr noundef nonnull align 8 dereferenceable(32) %__t, i64 noundef %__n) #0 comdat align 2 {
entry:
  %__t.addr = alloca ptr, align 8
  %__n.addr = alloca i64, align 8
  store ptr %__t, ptr %__t.addr, align 8
  store i64 %__n, ptr %__n.addr, align 8
  %0 = load ptr, ptr %__t.addr, align 8
  %1 = load i64, ptr %__n.addr, align 8
  %arrayidx = getelementptr inbounds [4 x i64], ptr %0, i64 0, i64 %1
  ret ptr %arrayidx
}

; Function Attrs: mustprogress nounwind uwtable
define linkonce_odr dso_local noundef nonnull align 8 dereferenceable(8) ptr @_ZNSt5arrayIyLm4EEixEm(ptr noundef nonnull align 8 dereferenceable(32) %this, i64 noundef %__n) #0 comdat align 2 {
entry:
  %this.addr = alloca ptr, align 8
  %__n.addr = alloca i64, align 8
  store ptr %this, ptr %this.addr, align 8
  store i64 %__n, ptr %__n.addr, align 8
  %this1 = load ptr, ptr %this.addr, align 8
  %_M_elems = getelementptr inbounds %"struct.std::array", ptr %this1, i32 0, i32 0
  %0 = load i64, ptr %__n.addr, align 8
  %call = call noundef nonnull align 8 dereferenceable(8) ptr @_ZNSt14__array_traitsIyLm4EE6_S_refERA4_Kym(ptr noundef nonnull align 8 dereferenceable(32) %_M_elems, i64 noundef %0) #10
  ret ptr %call
}

; Function Attrs: mustprogress nounwind uwtable
define linkonce_odr hidden noundef i64 @_ZN3ue28bitfieldILm256EE7maskbitEm(i64 noundef %n) #0 comdat align 2 {
entry:
  %n.addr = alloca i64, align 8
  store i64 %n, ptr %n.addr, align 8
  %0 = load i64, ptr %n.addr, align 8
  %rem = urem i64 %0, 64
  %shl = shl i64 1, %rem
  ret i64 %shl
}

; Function Attrs: mustprogress nounwind uwtable
define linkonce_odr hidden void @_ZN3ue28bitfieldILm256EE9set_rangeEmm(ptr noundef nonnull align 8 dereferenceable(32) %this, i64 noundef %from, i64 noundef %to) #0 comdat align 2 {
entry:
  %this.addr = alloca ptr, align 8
  %from.addr = alloca i64, align 8
  %to.addr = alloca i64, align 8
  %block = alloca i64, align 8
  %i = alloca i64, align 8
  %block11 = alloca i64, align 8
  store ptr %this, ptr %this.addr, align 8
  store i64 %from, ptr %from.addr, align 8
  store i64 %to, ptr %to.addr, align 8
  %this1 = load ptr, ptr %this.addr, align 8
  %0 = load i64, ptr %from.addr, align 8
  %div = udiv i64 %0, 64
  %1 = load i64, ptr %to.addr, align 8
  %div2 = udiv i64 %1, 64
  %cmp = icmp eq i64 %div, %div2
  br i1 %cmp, label %if.then, label %if.end8

if.then:                                          ; preds = %entry
  %2 = load i64, ptr %from.addr, align 8
  %rem = urem i64 %2, 64
  %shl = shl i64 -1, %rem
  store i64 %shl, ptr %block, align 8
  %3 = load i64, ptr %to.addr, align 8
  %rem3 = urem i64 %3, 64
  %cmp4 = icmp ne i64 %rem3, 63
  br i1 %cmp4, label %if.then5, label %if.end

if.then5:                                         ; preds = %if.then
  %4 = load i64, ptr %to.addr, align 8
  %add = add i64 %4, 1
  %call = call noundef i64 @_ZN3ue28bitfieldILm256EE7maskbitEm(i64 noundef %add)
  %sub = sub i64 %call, 1
  %5 = load i64, ptr %block, align 8
  %and = and i64 %5, %sub
  store i64 %and, ptr %block, align 8
  br label %if.end

if.end:                                           ; preds = %if.then5, %if.then
  %6 = load i64, ptr %block, align 8
  %bits = getelementptr inbounds %"class.ue2::bitfield", ptr %this1, i32 0, i32 0
  %7 = load i64, ptr %from.addr, align 8
  %div6 = udiv i64 %7, 64
  %call7 = call noundef nonnull align 8 dereferenceable(8) ptr @_ZNSt5arrayIyLm4EEixEm(ptr noundef nonnull align 8 dereferenceable(32) %bits, i64 noundef %div6) #10
  %8 = load i64, ptr %call7, align 8
  %or = or i64 %8, %6
  store i64 %or, ptr %call7, align 8
  br label %if.end37

if.end8:                                          ; preds = %entry
  %9 = load i64, ptr %from.addr, align 8
  store i64 %9, ptr %i, align 8
  %10 = load i64, ptr %i, align 8
  %rem9 = urem i64 %10, 64
  %tobool = icmp ne i64 %rem9, 0
  br i1 %tobool, label %if.then10, label %if.end20

if.then10:                                        ; preds = %if.end8
  %11 = load i64, ptr %i, align 8
  %rem12 = urem i64 %11, 64
  %shl13 = shl i64 -1, %rem12
  store i64 %shl13, ptr %block11, align 8
  %12 = load i64, ptr %block11, align 8
  %bits14 = getelementptr inbounds %"class.ue2::bitfield", ptr %this1, i32 0, i32 0
  %13 = load i64, ptr %i, align 8
  %div15 = udiv i64 %13, 64
  %call16 = call noundef nonnull align 8 dereferenceable(8) ptr @_ZNSt5arrayIyLm4EEixEm(ptr noundef nonnull align 8 dereferenceable(32) %bits14, i64 noundef %div15) #10
  %14 = load i64, ptr %call16, align 8
  %or17 = or i64 %14, %12
  store i64 %or17, ptr %call16, align 8
  %15 = load i64, ptr %i, align 8
  %add18 = add i64 %15, 63
  %and19 = and i64 %add18, -64
  store i64 %and19, ptr %i, align 8
  br label %if.end20

if.end20:                                         ; preds = %if.then10, %if.end8
  br label %for.cond

for.cond:                                         ; preds = %for.inc, %if.end20
  %16 = load i64, ptr %i, align 8
  %add21 = add i64 %16, 64
  %17 = load i64, ptr %to.addr, align 8
  %add22 = add i64 %17, 1
  %cmp23 = icmp ule i64 %add21, %add22
  br i1 %cmp23, label %for.body, label %for.end

for.body:                                         ; preds = %for.cond
  %bits24 = getelementptr inbounds %"class.ue2::bitfield", ptr %this1, i32 0, i32 0
  %18 = load i64, ptr %i, align 8
  %div25 = udiv i64 %18, 64
  %call26 = call noundef nonnull align 8 dereferenceable(8) ptr @_ZNSt5arrayIyLm4EEixEm(ptr noundef nonnull align 8 dereferenceable(32) %bits24, i64 noundef %div25) #10
  store i64 -1, ptr %call26, align 8
  br label %for.inc

for.inc:                                          ; preds = %for.body
  %19 = load i64, ptr %i, align 8
  %add27 = add i64 %19, 64
  store i64 %add27, ptr %i, align 8
  br label %for.cond, !llvm.loop !31

for.end:                                          ; preds = %for.cond
  %20 = load i64, ptr %i, align 8
  %21 = load i64, ptr %to.addr, align 8
  %cmp28 = icmp ule i64 %20, %21
  br i1 %cmp28, label %if.then29, label %if.end37

if.then29:                                        ; preds = %for.end
  %22 = load i64, ptr %to.addr, align 8
  %add30 = add i64 %22, 1
  %call31 = call noundef i64 @_ZN3ue28bitfieldILm256EE7maskbitEm(i64 noundef %add30)
  %sub32 = sub i64 %call31, 1
  %bits33 = getelementptr inbounds %"class.ue2::bitfield", ptr %this1, i32 0, i32 0
  %23 = load i64, ptr %i, align 8
  %div34 = udiv i64 %23, 64
  %call35 = call noundef nonnull align 8 dereferenceable(8) ptr @_ZNSt5arrayIyLm4EEixEm(ptr noundef nonnull align 8 dereferenceable(32) %bits33, i64 noundef %div34) #10
  %24 = load i64, ptr %call35, align 8
  %or36 = or i64 %24, %sub32
  store i64 %or36, ptr %call35, align 8
  br label %if.end37

if.end37:                                         ; preds = %if.then29, %for.end, %if.end
  ret void
}

; Function Attrs: mustprogress uwtable
define linkonce_odr hidden void @_ZN3ue29CharReach8setRangeEhh(ptr noundef nonnull align 8 dereferenceable(32) %this, i8 noundef zeroext %from, i8 noundef zeroext %to) #1 comdat align 2 {
entry:
  %this.addr = alloca ptr, align 8
  %from.addr = alloca i8, align 1
  %to.addr = alloca i8, align 1
  store ptr %this, ptr %this.addr, align 8
  store i8 %from, ptr %from.addr, align 1
  store i8 %to, ptr %to.addr, align 1
  %this1 = load ptr, ptr %this.addr, align 8
  %bits = getelementptr inbounds %"class.ue2::CharReach", ptr %this1, i32 0, i32 0
  %0 = load i8, ptr %from.addr, align 1
  %conv = zext i8 %0 to i64
  %1 = load i8, ptr %to.addr, align 1
  %conv2 = zext i8 %1 to i64
  call void @_ZN3ue28bitfieldILm256EE9set_rangeEmm(ptr noundef nonnull align 8 dereferenceable(32) %bits, i64 noundef %conv, i64 noundef %conv2)
  ret void
}

; Function Attrs: mustprogress nounwind uwtable
define linkonce_odr hidden void @_ZN3ue28bitfieldILm256EEC2Ev(ptr noundef nonnull align 8 dereferenceable(32) %this) unnamed_addr #0 comdat align 2 {
entry:
  %this.addr = alloca ptr, align 8
  store ptr %this, ptr %this.addr, align 8
  %this1 = load ptr, ptr %this.addr, align 8
  %bits = getelementptr inbounds %"class.ue2::bitfield", ptr %this1, i32 0, i32 0
  call void @llvm.memset.p0.i64(ptr align 8 %bits, i8 0, i64 32, i1 false)
  ret void
}

; Function Attrs: mustprogress uwtable
define linkonce_odr hidden void @_ZN3ue29CharReachC2Ehh(ptr noundef nonnull align 8 dereferenceable(32) %this, i8 noundef zeroext %from, i8 noundef zeroext %to) unnamed_addr #1 comdat align 2 {
entry:
  %this.addr = alloca ptr, align 8
  %from.addr = alloca i8, align 1
  %to.addr = alloca i8, align 1
  store ptr %this, ptr %this.addr, align 8
  store i8 %from, ptr %from.addr, align 1
  store i8 %to, ptr %to.addr, align 1
  %this1 = load ptr, ptr %this.addr, align 8
  %bits = getelementptr inbounds %"class.ue2::CharReach", ptr %this1, i32 0, i32 0
  call void @_ZN3ue28bitfieldILm256EEC2Ev(ptr noundef nonnull align 8 dereferenceable(32) %bits)
  %0 = load i8, ptr %from.addr, align 1
  %1 = load i8, ptr %to.addr, align 1
  call void @_ZN3ue29CharReach8setRangeEhh(ptr noundef nonnull align 8 dereferenceable(32) %this1, i8 noundef zeroext %0, i8 noundef zeroext %1)
  ret void
}

; Function Attrs: mustprogress uwtable
define hidden void @_ZN3ue218UTF8ComponentClass19ensureTwoDotTrailerERNS_18GlushkovBuildStateE(ptr noundef nonnull align 8 dereferenceable(208) %this, ptr noundef nonnull align 8 dereferenceable(8) %bs) #1 align 2 {
entry:
  %this.addr = alloca ptr, align 8
  %bs.addr = alloca ptr, align 8
  %builder = alloca ptr, align 8
  %ref.tmp = alloca %"class.ue2::CharReach", align 8
  store ptr %this, ptr %this.addr, align 8
  store ptr %bs, ptr %bs.addr, align 8
  %this1 = load ptr, ptr %this.addr, align 8
  %0 = load ptr, ptr %bs.addr, align 8
  %vtable = load ptr, ptr %0, align 8
  %vfn = getelementptr inbounds ptr, ptr %vtable, i64 2
  %1 = load ptr, ptr %vfn, align 8
  %call = call noundef nonnull align 8 dereferenceable(8) ptr %1(ptr noundef nonnull align 8 dereferenceable(8) %0)
  store ptr %call, ptr %builder, align 8
  %two_dot_trailer = getelementptr inbounds %"class.ue2::UTF8ComponentClass", ptr %this1, i32 0, i32 5
  %2 = load i32, ptr %two_dot_trailer, align 8
  %3 = load i32, ptr @_ZN3ue218GlushkovBuildState17POS_UNINITIALIZEDE, align 4
  %cmp = icmp ne i32 %2, %3
  br i1 %cmp, label %if.then, label %if.end

if.then:                                          ; preds = %entry
  br label %return

if.end:                                           ; preds = %entry
  %4 = load ptr, ptr %bs.addr, align 8
  call void @_ZN3ue218UTF8ComponentClass16ensureDotTrailerERNS_18GlushkovBuildStateE(ptr noundef nonnull align 8 dereferenceable(208) %this1, ptr noundef nonnull align 8 dereferenceable(8) %4)
  %5 = load ptr, ptr %builder, align 8
  %vtable2 = load ptr, ptr %5, align 8
  %vfn3 = getelementptr inbounds ptr, ptr %vtable2, i64 2
  %6 = load ptr, ptr %vfn3, align 8
  %call4 = call noundef i32 %6(ptr noundef nonnull align 8 dereferenceable(8) %5, i64 noundef 1)
  %two_dot_trailer5 = getelementptr inbounds %"class.ue2::UTF8ComponentClass", ptr %this1, i32 0, i32 5
  store i32 %call4, ptr %two_dot_trailer5, align 8
  %7 = load ptr, ptr %builder, align 8
  %two_dot_trailer6 = getelementptr inbounds %"class.ue2::UTF8ComponentClass", ptr %this1, i32 0, i32 5
  %8 = load i32, ptr %two_dot_trailer6, align 8
  call void @_ZN3ue29CharReachC2Ehh(ptr noundef nonnull align 8 dereferenceable(32) %ref.tmp, i8 noundef zeroext -128, i8 noundef zeroext -65)
  %vtable7 = load ptr, ptr %7, align 8
  %vfn8 = getelementptr inbounds ptr, ptr %vtable7, i64 9
  %9 = load ptr, ptr %vfn8, align 8
  call void %9(ptr noundef nonnull align 8 dereferenceable(8) %7, i32 noundef %8, ptr noundef nonnull align 8 dereferenceable(32) %ref.tmp)
  %10 = load ptr, ptr %bs.addr, align 8
  %two_dot_trailer9 = getelementptr inbounds %"class.ue2::UTF8ComponentClass", ptr %this1, i32 0, i32 5
  %11 = load i32, ptr %two_dot_trailer9, align 8
  %one_dot_trailer = getelementptr inbounds %"class.ue2::UTF8ComponentClass", ptr %this1, i32 0, i32 4
  %12 = load i32, ptr %one_dot_trailer, align 4
  %vtable10 = load ptr, ptr %10, align 8
  %vfn11 = getelementptr inbounds ptr, ptr %vtable10, i64 6
  %13 = load ptr, ptr %vfn11, align 8
  call void %13(ptr noundef nonnull align 8 dereferenceable(8) %10, i32 noundef %11, i32 noundef %12)
  br label %return

return:                                           ; preds = %if.end, %if.then
  ret void
}