; Function Attrs: mustprogress uwtable
define hidden void @_ZN3ue218UTF8ComponentClass19ensureTwoDotTrailerERNS_18GlushkovBuildStateE(ptr noundef nonnull align 8 dereferenceable(208) %this, ptr noundef nonnull align 8 dereferenceable(8) %bs) local_unnamed_addr #1 align 2 {
entry:
  %ref.tmp = alloca %"class.ue2::CharReach", align 8
  %vtable = load ptr, ptr %bs, align 8
  %vfn = getelementptr inbounds i8, ptr %vtable, i64 16
  %0 = load ptr, ptr %vfn, align 8
  %call = tail call noundef nonnull align 8 dereferenceable(8) ptr %0(ptr noundef nonnull align 8 dereferenceable(8) %bs)
  %two_dot_trailer = getelementptr inbounds i8, ptr %this, i64 136
  %1 = load i32, ptr %two_dot_trailer, align 8
  %2 = load i32, ptr @_ZN3ue218GlushkovBuildState17POS_UNINITIALIZEDE, align 4
  %cmp.not = icmp eq i32 %1, %2
  br i1 %cmp.not, label %if.end, label %return

if.end:                                           ; preds = %entry
  tail call void @_ZN3ue218UTF8ComponentClass16ensureDotTrailerERNS_18GlushkovBuildStateE(ptr noundef nonnull align 8 dereferenceable(208) %this, ptr noundef nonnull align 8 dereferenceable(8) %bs)
  %vtable2 = load ptr, ptr %call, align 8
  %vfn3 = getelementptr inbounds i8, ptr %vtable2, i64 16
  %3 = load ptr, ptr %vfn3, align 8
  %call4 = tail call noundef i32 %3(ptr noundef nonnull align 8 dereferenceable(8) %call, i64 noundef 1)
  store i32 %call4, ptr %two_dot_trailer, align 8
  call void @llvm.memset.p0.i64(ptr noundef nonnull align 8 dereferenceable(32) %ref.tmp, i8 0, i64 32, i1 false)
  %arrayidx.i.i.i.i.i = getelementptr inbounds i8, ptr %ref.tmp, i64 16
  store i64 -1, ptr %arrayidx.i.i.i.i.i, align 8
  %vtable7 = load ptr, ptr %call, align 8
  %vfn8 = getelementptr inbounds i8, ptr %vtable7, i64 72
  %4 = load ptr, ptr %vfn8, align 8
  call void %4(ptr noundef nonnull align 8 dereferenceable(8) %call, i32 noundef %call4, ptr noundef nonnull align 8 dereferenceable(32) %ref.tmp)
  %5 = load i32, ptr %two_dot_trailer, align 8
  %one_dot_trailer = getelementptr inbounds i8, ptr %this, i64 132
  %6 = load i32, ptr %one_dot_trailer, align 4
  %vtable10 = load ptr, ptr %bs, align 8
  %vfn11 = getelementptr inbounds i8, ptr %vtable10, i64 48
  %7 = load ptr, ptr %vfn11, align 8
  call void %7(ptr noundef nonnull align 8 dereferenceable(8) %bs, i32 noundef %5, i32 noundef %6)
  br label %return

return:                                           ; preds = %entry, %if.end
  ret void
}